target datalayout = "e-m:e-p270:32:32-p271:32:32-p272:64:64-i64:64-i128:128-f80:128-n8:16:32:64-S128"
target triple = "x86_64-pc-linux-gnu"

%"class.icu_77::Replaceable" = type { %"class.icu_77::UObject" }
%"class.icu_77::UObject" = type { ptr }
%"class.icu_77::UnicodeString" = type { %"class.icu_77::Replaceable", %"union.icu_77::UnicodeString::StackBufferOrFields" }
%"union.icu_77::UnicodeString::StackBufferOrFields" = type { %struct.anon.0, [32 x i8] }
%struct.anon.0 = type { i16, i32, i32, ptr }
%"class.icu_77::Char16Ptr" = type { ptr }

; Function Attrs: inlinehint mustprogress nounwind uwtable
define linkonce_odr void @_ZN6icu_779Char16PtrD2Ev(ptr noundef nonnull align 8 dereferenceable(8) %0) unnamed_addr #2 comdat align 2 {
  %2 = alloca ptr, align 8
  store ptr %0, ptr %2, align 8, !tbaa !66
  %3 = load ptr, ptr %2, align 8
  %4 = getelementptr inbounds nuw %"class.icu_77::Char16Ptr", ptr %3, i32 0, i32 0
  %5 = load ptr, ptr %4, align 8, !tbaa !68
  call void asm sideeffect "", "rm,~{memory},~{dirflag},~{fpsr},~{flags}"(ptr %5) #9, !srcloc !70
  ret void
}

; Function Attrs: inlinehint mustprogress nounwind uwtable
define linkonce_odr void @_ZN6icu_779Char16PtrC2EPDs(ptr noundef nonnull align 8 dereferenceable(8) %0, ptr noundef %1) unnamed_addr #2 comdat align 2 {
  %3 = alloca ptr, align 8
  %4 = alloca ptr, align 8
  store ptr %0, ptr %3, align 8, !tbaa !66
  store ptr %1, ptr %4, align 8, !tbaa !33
  %5 = load ptr, ptr %3, align 8
  %6 = getelementptr inbounds nuw %"class.icu_77::Char16Ptr", ptr %5, i32 0, i32 0
  %7 = load ptr, ptr %4, align 8, !tbaa !33
  store ptr %7, ptr %6, align 8, !tbaa !68
  ret void
}

; Function Attrs: inlinehint mustprogress nounwind uwtable
define internal noundef signext i8 @_ZL9U_FAILURE10UErrorCode(i32 noundef %0) #2 {
  %2 = alloca i32, align 4
  store i32 %0, ptr %2, align 4, !tbaa !40
  %3 = load i32, ptr %2, align 4, !tbaa !40
  %4 = icmp sgt i32 %3, 0
  %5 = zext i1 %4 to i8
  ret i8 %5
}

; Function Attrs: mustprogress uwtable
define void @utrans_transIncrementalUChars_77(ptr noundef %0, ptr noundef %1, ptr noundef %2, i32 noundef %3, ptr noundef %4, ptr noundef %5) #1 personality ptr @__gxx_personality_v0 {
  %7 = alloca ptr, align 8
  %8 = alloca ptr, align 8
  %9 = alloca ptr, align 8
  %10 = alloca i32, align 4
  %11 = alloca ptr, align 8
  %12 = alloca ptr, align 8
  %13 = alloca i32, align 4
  %14 = alloca %"class.icu_77::UnicodeString", align 8
  %15 = alloca ptr, align 8
  %16 = alloca i32, align 4
  %17 = alloca %"class.icu_77::Char16Ptr", align 8
  store ptr %0, ptr %7, align 8, !tbaa !8
  store ptr %1, ptr %8, align 8, !tbaa !33
  store ptr %2, ptr %9, align 8, !tbaa !51
  store i32 %3, ptr %10, align 4, !tbaa !23
  store ptr %4, ptr %11, align 8, !tbaa !64
  store ptr %5, ptr %12, align 8, !tbaa !39
  %18 = load ptr, ptr %12, align 8, !tbaa !39
  %19 = icmp eq ptr %18, null
  br i1 %19, label %25, label %20

20:                                               ; preds = %6
  %21 = load ptr, ptr %12, align 8, !tbaa !39
  %22 = load i32, ptr %21, align 4, !tbaa !40
  %23 = call noundef signext i8 @_ZL9U_FAILURE10UErrorCode(i32 noundef %22)
  %24 = icmp ne i8 %23, 0
  br i1 %24, label %25, label %26

25:                                               ; preds = %20, %6
  br label %82

26:                                               ; preds = %20
  %27 = load ptr, ptr %7, align 8, !tbaa !8
  %28 = icmp eq ptr %27, null
  br i1 %28, label %35, label %29

29:                                               ; preds = %26
  %30 = load ptr, ptr %8, align 8, !tbaa !33
  %31 = icmp eq ptr %30, null
  br i1 %31, label %35, label %32

32:                                               ; preds = %29
  %33 = load ptr, ptr %11, align 8, !tbaa !64
  %34 = icmp eq ptr %33, null
  br i1 %34, label %35, label %37

35:                                               ; preds = %32, %29, %26
  %36 = load ptr, ptr %12, align 8, !tbaa !39
  store i32 1, ptr %36, align 4, !tbaa !40
  br label %82

37:                                               ; preds = %32
  call void @llvm.lifetime.start.p0(i64 4, ptr %13) #9
  %38 = load ptr, ptr %9, align 8, !tbaa !51
  %39 = icmp eq ptr %38, null
  br i1 %39, label %44, label %40

40:                                               ; preds = %37
  %41 = load ptr, ptr %9, align 8, !tbaa !51
  %42 = load i32, ptr %41, align 4, !tbaa !23
  %43 = icmp slt i32 %42, 0
  br i1 %43, label %44, label %47

44:                                               ; preds = %40, %37
  %45 = load ptr, ptr %8, align 8, !tbaa !33
  %46 = call i32 @u_strlen_77(ptr noundef %45)
  br label %50

47:                                               ; preds = %40
  %48 = load ptr, ptr %9, align 8, !tbaa !51
  %49 = load i32, ptr %48, align 4, !tbaa !23
  br label %50

50:                                               ; preds = %47, %44
  %51 = phi i32 [ %46, %44 ], [ %49, %47 ]
  store i32 %51, ptr %13, align 4, !tbaa !23
  call void @llvm.lifetime.start.p0(i64 64, ptr %14) #9
  %52 = load ptr, ptr %8, align 8, !tbaa !33
  %53 = load i32, ptr %13, align 4, !tbaa !23
  %54 = load i32, ptr %10, align 4, !tbaa !23
  call void @_ZN6icu_7713UnicodeStringC1EPDsii(ptr noundef nonnull align 8 dereferenceable(64) %14, ptr noundef %52, i32 noundef %53, i32 noundef %54)
  %55 = load ptr, ptr %7, align 8, !tbaa !8
  %56 = load ptr, ptr %11, align 8, !tbaa !64
  %57 = load ptr, ptr %12, align 8, !tbaa !39
  %58 = load ptr, ptr %55, align 8, !tbaa !12
  %59 = getelementptr inbounds ptr, ptr %58, i64 8
  %60 = load ptr, ptr %59, align 8
  invoke void %60(ptr noundef nonnull align 8 dereferenceable(84) %55, ptr noundef nonnull align 8 dereferenceable(8) %14, ptr noundef nonnull align 4 dereferenceable(16) %56, ptr noundef nonnull align 4 dereferenceable(4) %57)
          to label %61 unwind label %73

61:                                               ; preds = %50
  %62 = load ptr, ptr %8, align 8, !tbaa !33
  invoke void @_ZN6icu_779Char16PtrC2EPDs(ptr noundef nonnull align 8 dereferenceable(8) %17, ptr noundef %62)
          to label %63 unwind label %73

63:                                               ; preds = %61
  %64 = load i32, ptr %10, align 4, !tbaa !23
  %65 = load ptr, ptr %12, align 8, !tbaa !39
  %66 = invoke noundef i32 @_ZNK6icu_7713UnicodeString7extractENS_9Char16PtrEiR10UErrorCode(ptr noundef nonnull align 8 dereferenceable(64) %14, ptr noundef %17, i32 noundef %64, ptr noundef nonnull align 4 dereferenceable(4) %65)
          to label %67 unwind label %77

67:                                               ; preds = %63
  store i32 %66, ptr %13, align 4, !tbaa !23
  call void @_ZN6icu_779Char16PtrD2Ev(ptr noundef nonnull align 8 dereferenceable(8) %17) #9
  %68 = load ptr, ptr %9, align 8, !tbaa !51
  %69 = icmp ne ptr %68, null
  br i1 %69, label %70, label %81

70:                                               ; preds = %67
  %71 = load i32, ptr %13, align 4, !tbaa !23
  %72 = load ptr, ptr %9, align 8, !tbaa !51
  store i32 %71, ptr %72, align 4, !tbaa !23
  br label %81

73:                                               ; preds = %61, %50
  %74 = landingpad { ptr, i32 }
          cleanup
  %75 = extractvalue { ptr, i32 } %74, 0
  store ptr %75, ptr %15, align 8
  %76 = extractvalue { ptr, i32 } %74, 1
  store i32 %76, ptr %16, align 4
  br label %83

77:                                               ; preds = %63
  %78 = landingpad { ptr, i32 }
          cleanup
  %79 = extractvalue { ptr, i32 } %78, 0
  store ptr %79, ptr %15, align 8
  %80 = extractvalue { ptr, i32 } %78, 1
  store i32 %80, ptr %16, align 4
  call void @_ZN6icu_779Char16PtrD2Ev(ptr noundef nonnull align 8 dereferenceable(8) %17) #9
  br label %83

81:                                               ; preds = %70, %67
  call void @_ZN6icu_7713UnicodeStringD1Ev(ptr noundef nonnull align 8 dereferenceable(64) %14) #9
  call void @llvm.lifetime.end.p0(i64 64, ptr %14) #9
  call void @llvm.lifetime.end.p0(i64 4, ptr %13) #9
  br label %82

82:                                               ; preds = %81, %35, %25
  ret void

83:                                               ; preds = %77, %73
  call void @_ZN6icu_7713UnicodeStringD1Ev(ptr noundef nonnull align 8 dereferenceable(64) %14) #9
  call void @llvm.lifetime.end.p0(i64 64, ptr %14) #9
  call void @llvm.lifetime.end.p0(i64 4, ptr %13) #9
  br label %84

84:                                               ; preds = %83
  %85 = load ptr, ptr %15, align 8
  %86 = load i32, ptr %16, align 4
  %87 = insertvalue { ptr, i32 } poison, ptr %85, 0
  %88 = insertvalue { ptr, i32 } %87, i32 %86, 1
  resume { ptr, i32 } %88
}