; Function Attrs: mustprogress uwtable
define void @utrans_transIncrementalUChars_77(ptr noundef %0, ptr noundef %1, ptr noundef %2, i32 noundef %3, ptr noundef %4, ptr noundef %5) local_unnamed_addr #4 personality ptr @__gxx_personality_v0 {
  %7 = alloca %"class.icu_77::UnicodeString", align 8
  %8 = alloca %"class.icu_77::Char16Ptr", align 8
  %9 = icmp eq ptr %5, null
  br i1 %9, label %41, label %10

10:                                               ; preds = %6
  %11 = load i32, ptr %5, align 4, !tbaa !23
  %12 = icmp slt i32 %11, 1
  br i1 %12, label %13, label %41

13:                                               ; preds = %10
  %14 = icmp eq ptr %0, null
  %15 = icmp eq ptr %1, null
  %or.cond = or i1 %14, %15
  %16 = icmp eq ptr %4, null
  %or.cond3 = or i1 %or.cond, %16
  br i1 %or.cond3, label %17, label %18

17:                                               ; preds = %13
  store i32 1, ptr %5, align 4, !tbaa !23
  br label %41

18:                                               ; preds = %13
  %19 = icmp eq ptr %2, null
  br i1 %19, label %23, label %20

20:                                               ; preds = %18
  %21 = load i32, ptr %2, align 4, !tbaa !29
  %22 = icmp slt i32 %21, 0
  br i1 %22, label %23, label %25

23:                                               ; preds = %20, %18
  %24 = tail call i32 @u_strlen_77(ptr noundef nonnull %1)
  br label %25

25:                                               ; preds = %20, %23
  %26 = phi i32 [ %24, %23 ], [ %21, %20 ]
  call void @llvm.lifetime.start.p0(i64 64, ptr nonnull %7) #10
  call void @_ZN6icu_7713UnicodeStringC1EPDsii(ptr noundef nonnull align 8 dereferenceable(64) %7, ptr noundef nonnull %1, i32 noundef %26, i32 noundef %3)
  %27 = load ptr, ptr %0, align 8, !tbaa !3
  %28 = getelementptr inbounds nuw i8, ptr %27, i64 64
  %29 = load ptr, ptr %28, align 8
  invoke void %29(ptr noundef nonnull align 8 dereferenceable(84) %0, ptr noundef nonnull align 8 dereferenceable(8) %7, ptr noundef nonnull align 4 dereferenceable(16) %4, ptr noundef nonnull align 4 dereferenceable(4) %5)
          to label %30 unwind label %35

30:                                               ; preds = %25
  store ptr %1, ptr %8, align 8, !tbaa !39
  %31 = invoke noundef i32 @_ZNK6icu_7713UnicodeString7extractENS_9Char16PtrEiR10UErrorCode(ptr noundef nonnull align 8 dereferenceable(64) %7, ptr noundef nonnull %8, i32 noundef %3, ptr noundef nonnull align 4 dereferenceable(4) %5)
          to label %32 unwind label %37

32:                                               ; preds = %30
  %33 = load ptr, ptr %8, align 8, !tbaa !39
  call void asm sideeffect "", "rm,~{memory},~{dirflag},~{fpsr},~{flags}"(ptr %33) #10, !srcloc !41
  br i1 %19, label %40, label %34

34:                                               ; preds = %32
  store i32 %31, ptr %2, align 4, !tbaa !29
  br label %40

35:                                               ; preds = %25
  %36 = landingpad { ptr, i32 }
          cleanup
  br label %42

37:                                               ; preds = %30
  %38 = landingpad { ptr, i32 }
          cleanup
  %39 = load ptr, ptr %8, align 8, !tbaa !39
  call void asm sideeffect "", "rm,~{memory},~{dirflag},~{fpsr},~{flags}"(ptr %39) #10, !srcloc !41
  br label %42

40:                                               ; preds = %34, %32
  call void @_ZN6icu_7713UnicodeStringD1Ev(ptr noundef nonnull align 8 dereferenceable(64) %7) #10
  call void @llvm.lifetime.end.p0(i64 64, ptr nonnull %7) #10
  br label %41

41:                                               ; preds = %6, %10, %40, %17
  ret void

42:                                               ; preds = %37, %35
  %.pn = phi { ptr, i32 } [ %38, %37 ], [ %36, %35 ]
  call void @_ZN6icu_7713UnicodeStringD1Ev(ptr noundef nonnull align 8 dereferenceable(64) %7) #10
  call void @llvm.lifetime.end.p0(i64 64, ptr nonnull %7) #10
  resume { ptr, i32 } %.pn
}